target datalayout = "e-m:e-p270:32:32-p271:32:32-p272:64:64-i64:64-i128:128-f80:128-n8:16:32:64-S128"
target triple = "x86_64-pc-linux-gnu"

%struct.pmix_mca_base_var_enum_value_t = type { i32, ptr }

@.str.6 = private unnamed_addr constant [7 x i8] c" \09\0A\0B\0C\0D\00", align 1

; Function Attrs: nounwind uwtable
define internal i32 @pmix_mca_base_var_enum_verbose_vfs(ptr noundef %0, ptr noundef %1, ptr noundef %2) #0 {
  %4 = alloca i32, align 4
  %5 = alloca ptr, align 8
  %6 = alloca ptr, align 8
  %7 = alloca ptr, align 8
  %8 = alloca ptr, align 8
  %9 = alloca i32, align 4
  %10 = alloca i32, align 4
  %11 = alloca i32, align 4
  store ptr %0, ptr %5, align 8, !tbaa !3
  store ptr %1, ptr %6, align 8, !tbaa !49
  store ptr %2, ptr %7, align 8, !tbaa !45
  call void @llvm.lifetime.start.p0(i64 8, ptr %8) #13
  call void @llvm.lifetime.start.p0(i64 4, ptr %9) #13
  %12 = load ptr, ptr %6, align 8, !tbaa !49
  %13 = call i64 @strspn(ptr noundef %12, ptr noundef @.str.6) #14
  %14 = load ptr, ptr %6, align 8, !tbaa !49
  %15 = getelementptr inbounds nuw i8, ptr %14, i64 %13
  store ptr %15, ptr %6, align 8, !tbaa !49
  %16 = load ptr, ptr %6, align 8, !tbaa !49
  %17 = call i64 @strtol(ptr noundef %16, ptr noundef %8, i32 noundef 10) #13
  %18 = trunc i64 %17 to i32
  store i32 %18, ptr %9, align 4, !tbaa !24
  %19 = load ptr, ptr %8, align 8, !tbaa !49
  %20 = load i8, ptr %19, align 1, !tbaa !50
  %21 = sext i8 %20 to i32
  %22 = icmp ne i32 %21, 0
  br i1 %22, label %23, label %55

23:                                               ; preds = %3
  call void @llvm.lifetime.start.p0(i64 4, ptr %10) #13
  store i32 0, ptr %10, align 4, !tbaa !24
  br label %24

24:                                               ; preds = %49, %23
  %25 = load i32, ptr %10, align 4, !tbaa !24
  %26 = sext i32 %25 to i64
  %27 = getelementptr inbounds [9 x %struct.pmix_mca_base_var_enum_value_t], ptr @verbose_values, i64 0, i64 %26
  %28 = getelementptr inbounds nuw %struct.pmix_mca_base_var_enum_value_t, ptr %27, i32 0, i32 1
  %29 = load ptr, ptr %28, align 8, !tbaa !26
  %30 = icmp ne ptr %29, null
  br i1 %30, label %32, label %31

31:                                               ; preds = %24
  store i32 2, ptr %11, align 4
  br label %52

32:                                               ; preds = %24
  %33 = load i32, ptr %10, align 4, !tbaa !24
  %34 = sext i32 %33 to i64
  %35 = getelementptr inbounds [9 x %struct.pmix_mca_base_var_enum_value_t], ptr @verbose_values, i64 0, i64 %34
  %36 = getelementptr inbounds nuw %struct.pmix_mca_base_var_enum_value_t, ptr %35, i32 0, i32 1
  %37 = load ptr, ptr %36, align 8, !tbaa !26
  %38 = load ptr, ptr %6, align 8, !tbaa !49
  %39 = call i32 @strcmp(ptr noundef %37, ptr noundef %38) #14
  %40 = icmp eq i32 0, %39
  br i1 %40, label %41, label %48

41:                                               ; preds = %32
  %42 = load i32, ptr %10, align 4, !tbaa !24
  %43 = sext i32 %42 to i64
  %44 = getelementptr inbounds [9 x %struct.pmix_mca_base_var_enum_value_t], ptr @verbose_values, i64 0, i64 %43
  %45 = getelementptr inbounds nuw %struct.pmix_mca_base_var_enum_value_t, ptr %44, i32 0, i32 0
  %46 = load i32, ptr %45, align 16, !tbaa !51
  %47 = load ptr, ptr %7, align 8, !tbaa !45
  store i32 %46, ptr %47, align 4, !tbaa !24
  store i32 0, ptr %4, align 4
  store i32 1, ptr %11, align 4
  br label %52

48:                                               ; preds = %32
  br label %49

49:                                               ; preds = %48
  %50 = load i32, ptr %10, align 4, !tbaa !24
  %51 = add nsw i32 %50, 1
  store i32 %51, ptr %10, align 4, !tbaa !24
  br label %24, !llvm.loop !52

52:                                               ; preds = %41, %31
  call void @llvm.lifetime.end.p0(i64 4, ptr %10) #13
  %53 = load i32, ptr %11, align 4
  switch i32 %53, label %68 [
    i32 2, label %54
  ]

54:                                               ; preds = %52
  store i32 -46, ptr %4, align 4
  store i32 1, ptr %11, align 4
  br label %68

55:                                               ; preds = %3
  %56 = load i32, ptr %9, align 4, !tbaa !24
  %57 = icmp slt i32 %56, -1
  br i1 %57, label %58, label %59

58:                                               ; preds = %55
  store i32 -1, ptr %9, align 4, !tbaa !24
  br label %64

59:                                               ; preds = %55
  %60 = load i32, ptr %9, align 4, !tbaa !24
  %61 = icmp sgt i32 %60, 100
  br i1 %61, label %62, label %63

62:                                               ; preds = %59
  store i32 100, ptr %9, align 4, !tbaa !24
  br label %63

63:                                               ; preds = %62, %59
  br label %64

64:                                               ; preds = %63, %58
  br label %65

65:                                               ; preds = %64
  %66 = load i32, ptr %9, align 4, !tbaa !24
  %67 = load ptr, ptr %7, align 8, !tbaa !45
  store i32 %66, ptr %67, align 4, !tbaa !24
  store i32 0, ptr %4, align 4
  store i32 1, ptr %11, align 4
  br label %68

68:                                               ; preds = %65, %54, %52
  call void @llvm.lifetime.end.p0(i64 4, ptr %9) #13
  call void @llvm.lifetime.end.p0(i64 8, ptr %8) #13
  %69 = load i32, ptr %4, align 4
  ret i32 %69
}