; Function Attrs: nofree nounwind uwtable
define internal range(i32 -46, 1) i32 @pmix_mca_base_var_enum_verbose_vfs(ptr readnone captures(none) %0, ptr noundef %1, ptr noundef writeonly captures(none) %2) #5 {
  %4 = alloca ptr, align 8
  call void @llvm.lifetime.start.p0(i64 8, ptr nonnull %4) #21
  %5 = tail call i64 @strspn(ptr noundef %1, ptr noundef nonnull @.str.6) #22
  %6 = getelementptr inbounds nuw i8, ptr %1, i64 %5
  %7 = call i64 @strtol(ptr noundef %6, ptr noundef nonnull %4, i32 noundef 10) #21
  %8 = load ptr, ptr %4, align 8, !tbaa !41
  %9 = load i8, ptr %8, align 1, !tbaa !42
  %.not = icmp eq i8 %9, 0
  br i1 %.not, label %19, label %.preheader

.preheader:                                       ; preds = %3
  %10 = load ptr, ptr getelementptr inbounds nuw (i8, ptr @verbose_values, i64 8), align 8, !tbaa !23
  %.not1921 = icmp eq ptr %10, null
  br i1 %.not1921, label %.loopexit, label %.lr.ph.preheader

.lr.ph.preheader:                                 ; preds = %.preheader
  %11 = tail call i32 @strcmp(ptr noundef nonnull dereferenceable(1) %10, ptr noundef nonnull dereferenceable(1) %6) #22
  %12 = icmp eq i32 %11, 0
  br i1 %12, label %.lr.ph._crit_edge, label %.lr.ph28

.lr.ph28:                                         ; preds = %.lr.ph.preheader, %.lr.ph
  %indvars.iv27 = phi i64 [ %indvars.iv.next, %.lr.ph ], [ 0, %.lr.ph.preheader ]
  %indvars.iv.next = add nuw nsw i64 %indvars.iv27, 1
  %13 = getelementptr inbounds nuw [9 x %struct.pmix_mca_base_var_enum_value_t], ptr @verbose_values, i64 0, i64 %indvars.iv.next
  %14 = getelementptr inbounds nuw i8, ptr %13, i64 8
  %15 = load ptr, ptr %14, align 8, !tbaa !23
  %.not19 = icmp eq ptr %15, null
  br i1 %.not19, label %.loopexit, label %.lr.ph, !llvm.loop !44

.lr.ph:                                           ; preds = %.lr.ph28
  %16 = tail call i32 @strcmp(ptr noundef nonnull dereferenceable(1) %15, ptr noundef nonnull dereferenceable(1) %6) #22
  %17 = icmp eq i32 %16, 0
  br i1 %17, label %.lr.ph._crit_edge, label %.lr.ph28, !llvm.loop !44

.lr.ph._crit_edge:                                ; preds = %.lr.ph, %.lr.ph.preheader
  %.lcssa = phi ptr [ @verbose_values, %.lr.ph.preheader ], [ %13, %.lr.ph ]
  %18 = load i32, ptr %.lcssa, align 16, !tbaa !43
  br label %.loopexit.sink.split

19:                                               ; preds = %3
  %20 = trunc i64 %7 to i32
  %spec.store.select = tail call i32 @llvm.smin.i32(i32 %20, i32 100)
  %.015 = tail call i32 @llvm.smax.i32(i32 %spec.store.select, i32 -1)
  br label %.loopexit.sink.split

.loopexit.sink.split:                             ; preds = %19, %.lr.ph._crit_edge
  %.sink = phi i32 [ %18, %.lr.ph._crit_edge ], [ %.015, %19 ]
  store i32 %.sink, ptr %2, align 4, !tbaa !40
  br label %.loopexit

.loopexit:                                        ; preds = %.lr.ph28, %.loopexit.sink.split, %.preheader
  %.1 = phi i32 [ -46, %.preheader ], [ 0, %.loopexit.sink.split ], [ -46, %.lr.ph28 ]
  call void @llvm.lifetime.end.p0(i64 8, ptr nonnull %4) #21
  ret i32 %.1
}